; Function Attrs: mustprogress uwtable
define void @_ZN26MLSceneGLSharedDataContext7addViewEP10QGLContext(ptr noundef nonnull align 8 dereferenceable(168) %0, ptr noundef %1) local_unnamed_addr #9 align 2 personality ptr @__gxx_personality_v0 {
  %3 = alloca %class.MLRenderingData, align 8
  %4 = getelementptr inbounds i8, ptr %0, i64 80
  %5 = load ptr, ptr %4, align 8
  %6 = getelementptr inbounds i8, ptr %0, i64 64
  %.not89 = icmp eq ptr %5, %6
  br i1 %.not89, label %._crit_edge, label %.lr.ph

.lr.ph:                                           ; preds = %2
  %7 = getelementptr inbounds i8, ptr %0, i64 48
  %8 = getelementptr inbounds i8, ptr %3, i64 8
  %9 = getelementptr inbounds i8, ptr %3, i64 16
  %10 = getelementptr inbounds i8, ptr %3, i64 32
  br label %11

11:                                               ; preds = %.lr.ph, %_ZN15MLRenderingDataD2Ev.exit
  %.sroa.04.010 = phi ptr [ %5, %.lr.ph ], [ %33, %_ZN15MLRenderingDataD2Ev.exit ]
  %12 = load ptr, ptr %7, align 8
  %13 = getelementptr inbounds i8, ptr %.sroa.04.010, i64 32
  %14 = load i32, ptr %13, align 8
  %15 = call noundef ptr @_ZN12MeshDocument7getMeshEj(ptr noundef nonnull align 8 dereferenceable(192) %12, i32 noundef %14)
  %.not = icmp eq ptr %15, null
  br i1 %.not, label %_ZN15MLRenderingDataD2Ev.exit, label %16

16:                                               ; preds = %11
  call void @_ZN15MLRenderingDataC1Ev(ptr noundef nonnull align 8 dereferenceable(40) %3)
  %17 = load i32, ptr %13, align 8
  invoke void @_ZN26MLSceneGLSharedDataContext27setRenderingDataPerMeshViewEiP10QGLContextRK15MLRenderingData(ptr noundef nonnull align 8 dereferenceable(168) %0, i32 noundef %17, ptr noundef %1, ptr noundef nonnull align 8 dereferenceable(40) %3)
          to label %18 unwind label %31

18:                                               ; preds = %16
  %19 = load ptr, ptr %8, align 8
  %20 = load ptr, ptr %9, align 8
  %.not.i.i.i.i = icmp eq ptr %20, %19
  br i1 %.not.i.i.i.i, label %_ZNSt6vectorIN3vcg20GLMeshAttributesInfo16InternalRendAttsESaIS2_EE5clearEv.exit.i.i, label %21

21:                                               ; preds = %18
  store ptr %19, ptr %9, align 8
  br label %_ZNSt6vectorIN3vcg20GLMeshAttributesInfo16InternalRendAttsESaIS2_EE5clearEv.exit.i.i

_ZNSt6vectorIN3vcg20GLMeshAttributesInfo16InternalRendAttsESaIS2_EE5clearEv.exit.i.i: ; preds = %21, %18
  %22 = load ptr, ptr %10, align 8
  %23 = icmp eq ptr %22, null
  br i1 %23, label %28, label %24

24:                                               ; preds = %_ZNSt6vectorIN3vcg20GLMeshAttributesInfo16InternalRendAttsESaIS2_EE5clearEv.exit.i.i
  %25 = load ptr, ptr %22, align 8
  %26 = getelementptr inbounds i8, ptr %25, i64 8
  %27 = load ptr, ptr %26, align 8
  call void %27(ptr noundef nonnull align 8 dereferenceable(90) %22) #25
  %.pre.i.i = load ptr, ptr %8, align 8
  br label %28

28:                                               ; preds = %24, %_ZNSt6vectorIN3vcg20GLMeshAttributesInfo16InternalRendAttsESaIS2_EE5clearEv.exit.i.i
  %29 = phi ptr [ %.pre.i.i, %24 ], [ %19, %_ZNSt6vectorIN3vcg20GLMeshAttributesInfo16InternalRendAttsESaIS2_EE5clearEv.exit.i.i ]
  %.not.i.i.i.i.i = icmp eq ptr %29, null
  br i1 %.not.i.i.i.i.i, label %_ZN15MLRenderingDataD2Ev.exit, label %30

30:                                               ; preds = %28
  call void @_ZdlPv(ptr noundef nonnull %29) #24
  br label %_ZN15MLRenderingDataD2Ev.exit

31:                                               ; preds = %16
  %32 = landingpad { ptr, i32 }
          cleanup
  call void @_ZN15MLRenderingDataD2Ev(ptr noundef nonnull align 8 dereferenceable(40) %3) #25
  resume { ptr, i32 } %32

_ZN15MLRenderingDataD2Ev.exit:                    ; preds = %30, %28, %11
  %33 = call noundef ptr @_ZSt18_Rb_tree_incrementPSt18_Rb_tree_node_base(ptr noundef nonnull %.sroa.04.010) #27
  %.not8 = icmp eq ptr %33, %6
  br i1 %.not8, label %._crit_edge, label %11, !llvm.loop !228

._crit_edge:                                      ; preds = %_ZN15MLRenderingDataD2Ev.exit, %2
  ret void
}